; Function Attrs: mustprogress uwtable
define noundef nonnull align 8 dereferenceable(32) ptr @_ZN6google8protobuf13SStringPrintfEPNSt7__cxx1112basic_stringIcSt11char_traitsIcESaIcEEEPKcz(ptr noundef returned initializes((8, 16)) %0, ptr noundef readonly captures(none) %1, ...) local_unnamed_addr #0 personality ptr @__gxx_personality_v0 {
  %3 = alloca [1 x %struct.__va_list_tag], align 16
  call void @llvm.lifetime.start.p0(i64 24, ptr nonnull %3) #11
  call void @llvm.va_start.p0(ptr nonnull %3)
  %4 = getelementptr inbounds nuw i8, ptr %0, i64 8
  store i64 0, ptr %4, align 8, !tbaa !3
  %5 = load ptr, ptr %0, align 8, !tbaa !13
  store i8 0, ptr %5, align 1, !tbaa !12
  call void @_ZN6google8protobuf13StringAppendVEPNSt7__cxx1112basic_stringIcSt11char_traitsIcESaIcEEEPKcP13__va_list_tag(ptr noundef nonnull %0, ptr noundef %1, ptr noundef nonnull %3)
  call void @llvm.va_end.p0(ptr nonnull %3)
  call void @llvm.lifetime.end.p0(i64 24, ptr nonnull %3) #11
  ret ptr %0
}